target datalayout = "e-m:e-p270:32:32-p271:32:32-p272:64:64-i64:64-i128:128-f80:128-n8:16:32:64-S128"
target triple = "x86_64-pc-linux-gnu"

%"struct.vas::KalmanFilterNoOpencv::kalmanfilter1d32i" = type { [2 x i32], [2 x [2 x i32]], [2 x [2 x i32]], i32, [2 x [2 x i32]], [2 x i32] }

; Function Attrs: mustprogress nounwind uwtable
define hidden void @_ZN3vas20KalmanFilterNoOpencv22kalmanfilter1d32i_initEPNS0_17kalmanfilter1d32iEPii(ptr noundef nonnull align 4 dereferenceable(284) %0, ptr noundef %1, ptr noundef %2, i32 noundef %3) #2 align 2 {
  %5 = alloca ptr, align 8
  %6 = alloca ptr, align 8
  %7 = alloca ptr, align 8
  %8 = alloca i32, align 4
  store ptr %0, ptr %5, align 8, !tbaa !3
  store ptr %1, ptr %6, align 8, !tbaa !23
  store ptr %2, ptr %7, align 8, !tbaa !25
  store i32 %3, ptr %8, align 4, !tbaa !17
  %9 = load ptr, ptr %6, align 8, !tbaa !23
  call void @llvm.memset.p0.i64(ptr align 4 %9, i8 0, i64 68, i1 false)
  %10 = load ptr, ptr %7, align 8, !tbaa !25
  %11 = icmp ne ptr %10, null
  br i1 %11, label %12, label %18

12:                                               ; preds = %4
  %13 = load ptr, ptr %7, align 8, !tbaa !25
  %14 = load i32, ptr %13, align 4, !tbaa !17
  %15 = load ptr, ptr %6, align 8, !tbaa !23
  %16 = getelementptr inbounds nuw %"struct.vas::KalmanFilterNoOpencv::kalmanfilter1d32i", ptr %15, i32 0, i32 0
  %17 = getelementptr inbounds [2 x i32], ptr %16, i64 0, i64 0
  store i32 %14, ptr %17, align 4, !tbaa !17
  br label %18

18:                                               ; preds = %12, %4
  %19 = load i32, ptr %8, align 4, !tbaa !17
  %20 = load ptr, ptr %6, align 8, !tbaa !23
  %21 = getelementptr inbounds nuw %"struct.vas::KalmanFilterNoOpencv::kalmanfilter1d32i", ptr %20, i32 0, i32 1
  %22 = getelementptr inbounds [2 x [2 x i32]], ptr %21, i64 0, i64 0
  %23 = getelementptr inbounds [2 x i32], ptr %22, i64 0, i64 0
  store i32 %19, ptr %23, align 4, !tbaa !17
  %24 = load ptr, ptr %6, align 8, !tbaa !23
  %25 = getelementptr inbounds nuw %"struct.vas::KalmanFilterNoOpencv::kalmanfilter1d32i", ptr %24, i32 0, i32 1
  %26 = getelementptr inbounds [2 x [2 x i32]], ptr %25, i64 0, i64 1
  %27 = getelementptr inbounds [2 x i32], ptr %26, i64 0, i64 1
  store i32 0, ptr %27, align 4, !tbaa !17
  ret void
}